; ModuleID = '15/174.c'
source_filename = "15/174.c"
target datalayout = "e-m:e-p270:32:32-p271:32:32-p272:64:64-i64:64-f80:128-n8:16:32:64-S128"
target triple = "x86_64-pc-linux-gnu"

@.str = private unnamed_addr constant [3 x i8] c"%d\00", align 1

; Function Attrs: noinline nounwind uwtable
define dso_local i32 @main(i32 %0, i8** %1) #0 {
  %3 = alloca i32, align 4
  %4 = alloca i32, align 4
  %5 = alloca i8**, align 8
  %6 = alloca [1000 x [1000 x i32]], align 16
  %7 = alloca i32, align 4
  %8 = alloca i32, align 4
  %9 = alloca i32, align 4
  %10 = alloca i32, align 4
  %11 = alloca i32, align 4
  %12 = alloca i32, align 4
  store i32 0, i32* %3, align 4
  store i32 %0, i32* %4, align 4
  store i8** %1, i8*** %5, align 8
  store i32 0, i32* %7, align 4
  store i32 0, i32* %8, align 4
  %13 = call i32 (i8*, ...) @__isoc99_scanf(i8* getelementptr inbounds ([3 x i8], [3 x i8]* @.str, i64 0, i64 0), i32* %9)
  store i32 0, i32* %10, align 4
  br label %14

14:                                               ; preds = %35, %2
  %15 = load i32, i32* %10, align 4
  %16 = load i32, i32* %9, align 4
  %17 = icmp slt i32 %15, %16
  br i1 %17, label %18, label %38

18:                                               ; preds = %14
  store i32 0, i32* %11, align 4
  br label %19

19:                                               ; preds = %31, %18
  %20 = load i32, i32* %11, align 4
  %21 = load i32, i32* %9, align 4
  %22 = icmp slt i32 %20, %21
  br i1 %22, label %23, label %34

23:                                               ; preds = %19
  %24 = load i32, i32* %10, align 4
  %25 = sext i32 %24 to i64
  %26 = getelementptr inbounds [1000 x [1000 x i32]], [1000 x [1000 x i32]]* %6, i64 0, i64 %25
  %27 = load i32, i32* %11, align 4
  %28 = sext i32 %27 to i64
  %29 = getelementptr inbounds [1000 x i32], [1000 x i32]* %26, i64 0, i64 %28
  %30 = call i32 (i8*, ...) @__isoc99_scanf(i8* getelementptr inbounds ([3 x i8], [3 x i8]* @.str, i64 0, i64 0), i32* %29)
  br label %31

31:                                               ; preds = %23
  %32 = load i32, i32* %11, align 4
  %33 = add nsw i32 %32, 1
  store i32 %33, i32* %11, align 4
  br label %19

34:                                               ; preds = %19
  br label %35

35:                                               ; preds = %34
  %36 = load i32, i32* %10, align 4
  %37 = add nsw i32 %36, 1
  store i32 %37, i32* %10, align 4
  br label %14

38:                                               ; preds = %14
  store i32 0, i32* %10, align 4
  br label %39

39:                                               ; preds = %69, %38
  %40 = load i32, i32* %10, align 4
  %41 = load i32, i32* %9, align 4
  %42 = icmp slt i32 %40, %41
  br i1 %42, label %43, label %72

43:                                               ; preds = %39
  store i32 0, i32* %11, align 4
  br label %44

44:                                               ; preds = %61, %43
  %45 = load i32, i32* %11, align 4
  %46 = load i32, i32* %9, align 4
  %47 = icmp slt i32 %45, %46
  br i1 %47, label %48, label %64

48:                                               ; preds = %44
  %49 = load i32, i32* %10, align 4
  %50 = sext i32 %49 to i64
  %51 = getelementptr inbounds [1000 x [1000 x i32]], [1000 x [1000 x i32]]* %6, i64 0, i64 %50
  %52 = load i32, i32* %11, align 4
  %53 = sext i32 %52 to i64
  %54 = getelementptr inbounds [1000 x i32], [1000 x i32]* %51, i64 0, i64 %53
  %55 = load i32, i32* %54, align 4
  %56 = icmp eq i32 %55, 0
  br i1 %56, label %57, label %60

57:                                               ; preds = %48
  %58 = load i32, i32* %7, align 4
  %59 = add nsw i32 %58, 1
  store i32 %59, i32* %7, align 4
  br label %60

60:                                               ; preds = %57, %48
  br label %61

61:                                               ; preds = %60
  %62 = load i32, i32* %11, align 4
  %63 = add nsw i32 %62, 1
  store i32 %63, i32* %11, align 4
  br label %44

64:                                               ; preds = %44
  %65 = load i32, i32* %7, align 4
  %66 = icmp ne i32 %65, 0
  br i1 %66, label %67, label %68

67:                                               ; preds = %64
  br label %72

68:                                               ; preds = %64
  br label %69

69:                                               ; preds = %68
  %70 = load i32, i32* %10, align 4
  %71 = add nsw i32 %70, 1
  store i32 %71, i32* %10, align 4
  br label %39

72:                                               ; preds = %67, %39
  store i32 0, i32* %11, align 4
  br label %73

73:                                               ; preds = %103, %72
  %74 = load i32, i32* %11, align 4
  %75 = load i32, i32* %9, align 4
  %76 = icmp slt i32 %74, %75
  br i1 %76, label %77, label %106

77:                                               ; preds = %73
  store i32 0, i32* %10, align 4
  br label %78

78:                                               ; preds = %95, %77
  %79 = load i32, i32* %10, align 4
  %80 = load i32, i32* %9, align 4
  %81 = icmp slt i32 %79, %80
  br i1 %81, label %82, label %98

82:                                               ; preds = %78
  %83 = load i32, i32* %10, align 4
  %84 = sext i32 %83 to i64
  %85 = getelementptr inbounds [1000 x [1000 x i32]], [1000 x [1000 x i32]]* %6, i64 0, i64 %84
  %86 = load i32, i32* %11, align 4
  %87 = sext i32 %86 to i64
  %88 = getelementptr inbounds [1000 x i32], [1000 x i32]* %85, i64 0, i64 %87
  %89 = load i32, i32* %88, align 4
  %90 = icmp eq i32 %89, 0
  br i1 %90, label %91, label %94

91:                                               ; preds = %82
  %92 = load i32, i32* %8, align 4
  %93 = add nsw i32 %92, 1
  store i32 %93, i32* %8, align 4
  br label %94

94:                                               ; preds = %91, %82
  br label %95

95:                                               ; preds = %94
  %96 = load i32, i32* %10, align 4
  %97 = add nsw i32 %96, 1
  store i32 %97, i32* %10, align 4
  br label %78

98:                                               ; preds = %78
  %99 = load i32, i32* %8, align 4
  %100 = icmp ne i32 %99, 0
  br i1 %100, label %101, label %102

101:                                              ; preds = %98
  br label %106

102:                                              ; preds = %98
  br label %103

103:                                              ; preds = %102
  %104 = load i32, i32* %11, align 4
  %105 = add nsw i32 %104, 1
  store i32 %105, i32* %11, align 4
  br label %73

106:                                              ; preds = %101, %73
  store i32 0, i32* %12, align 4
  %107 = load i32, i32* %7, align 4
  %108 = sub nsw i32 %107, 2
  %109 = load i32, i32* %8, align 4
  %110 = sub nsw i32 %109, 2
  %111 = mul nsw i32 %108, %110
  store i32 %111, i32* %12, align 4
  %112 = load i32, i32* %12, align 4
  %113 = call i32 (i8*, ...) @printf(i8* getelementptr inbounds ([3 x i8], [3 x i8]* @.str, i64 0, i64 0), i32 %112)
  ret i32 0
}

declare dso_local i32 @__isoc99_scanf(i8*, ...) #1

declare dso_local i32 @printf(i8*, ...) #1


!llvm.module.flags = !{!0}
!llvm.ident = !{!1}

!0 = !{i32 1, !"wchar_size", i32 4}
!1 = !{!"clang version 10.0.0-4ubuntu1 "}
